target datalayout = "e-m:e-p270:32:32-p271:32:32-p272:64:64-i64:64-i128:128-f80:128-n8:16:32:64-S128"
target triple = "x86_64-pc-linux-gnu"

; Function Attrs: inlinehint nounwind uwtable
define internal i32 @archive_le32dec(ptr noundef %0) #7 {
  %2 = alloca ptr, align 8
  %3 = alloca ptr, align 8
  %4 = alloca i32, align 4
  %5 = alloca i32, align 4
  %6 = alloca i32, align 4
  %7 = alloca i32, align 4
  store ptr %0, ptr %2, align 8, !tbaa !25
  call void @llvm.lifetime.start.p0(i64 8, ptr %3) #8
  %8 = load ptr, ptr %2, align 8, !tbaa !25
  store ptr %8, ptr %3, align 8, !tbaa !15
  call void @llvm.lifetime.start.p0(i64 4, ptr %4) #8
  %9 = load ptr, ptr %3, align 8, !tbaa !15
  %10 = getelementptr inbounds i8, ptr %9, i64 3
  %11 = load i8, ptr %10, align 1, !tbaa !49
  %12 = zext i8 %11 to i32
  store i32 %12, ptr %4, align 4, !tbaa !39
  call void @llvm.lifetime.start.p0(i64 4, ptr %5) #8
  %13 = load ptr, ptr %3, align 8, !tbaa !15
  %14 = getelementptr inbounds i8, ptr %13, i64 2
  %15 = load i8, ptr %14, align 1, !tbaa !49
  %16 = zext i8 %15 to i32
  store i32 %16, ptr %5, align 4, !tbaa !39
  call void @llvm.lifetime.start.p0(i64 4, ptr %6) #8
  %17 = load ptr, ptr %3, align 8, !tbaa !15
  %18 = getelementptr inbounds i8, ptr %17, i64 1
  %19 = load i8, ptr %18, align 1, !tbaa !49
  %20 = zext i8 %19 to i32
  store i32 %20, ptr %6, align 4, !tbaa !39
  call void @llvm.lifetime.start.p0(i64 4, ptr %7) #8
  %21 = load ptr, ptr %3, align 8, !tbaa !15
  %22 = getelementptr inbounds i8, ptr %21, i64 0
  %23 = load i8, ptr %22, align 1, !tbaa !49
  %24 = zext i8 %23 to i32
  store i32 %24, ptr %7, align 4, !tbaa !39
  %25 = load i32, ptr %4, align 4, !tbaa !39
  %26 = shl i32 %25, 24
  %27 = load i32, ptr %5, align 4, !tbaa !39
  %28 = shl i32 %27, 16
  %29 = or i32 %26, %28
  %30 = load i32, ptr %6, align 4, !tbaa !39
  %31 = shl i32 %30, 8
  %32 = or i32 %29, %31
  %33 = load i32, ptr %7, align 4, !tbaa !39
  %34 = or i32 %32, %33
  call void @llvm.lifetime.end.p0(i64 4, ptr %7) #8
  call void @llvm.lifetime.end.p0(i64 4, ptr %6) #8
  call void @llvm.lifetime.end.p0(i64 4, ptr %5) #8
  call void @llvm.lifetime.end.p0(i64 4, ptr %4) #8
  call void @llvm.lifetime.end.p0(i64 8, ptr %3) #8
  ret i32 %34
}

; Function Attrs: inlinehint nounwind uwtable
define internal i64 @archive_le64dec(ptr noundef %0) #7 {
  %2 = alloca ptr, align 8
  %3 = alloca ptr, align 8
  store ptr %0, ptr %2, align 8, !tbaa !25
  call void @llvm.lifetime.start.p0(i64 8, ptr %3) #8
  %4 = load ptr, ptr %2, align 8, !tbaa !25
  store ptr %4, ptr %3, align 8, !tbaa !15
  %5 = load ptr, ptr %3, align 8, !tbaa !15
  %6 = getelementptr inbounds i8, ptr %5, i64 4
  %7 = call i32 @archive_le32dec(ptr noundef %6)
  %8 = zext i32 %7 to i64
  %9 = shl i64 %8, 32
  %10 = load ptr, ptr %3, align 8, !tbaa !15
  %11 = call i32 @archive_le32dec(ptr noundef %10)
  %12 = zext i32 %11 to i64
  %13 = or i64 %9, %12
  call void @llvm.lifetime.end.p0(i64 8, ptr %3) #8
  ret i64 %13
}

; Function Attrs: nounwind uwtable
define internal i32 @lzma_bidder_bid(ptr noundef %0, ptr noundef %1) #0 {
  %3 = alloca i32, align 4
  %4 = alloca ptr, align 8
  %5 = alloca ptr, align 8
  %6 = alloca ptr, align 8
  %7 = alloca i64, align 8
  %8 = alloca i32, align 4
  %9 = alloca i64, align 8
  %10 = alloca i32, align 4
  %11 = alloca i32, align 4
  store ptr %0, ptr %4, align 8, !tbaa !11
  store ptr %1, ptr %5, align 8, !tbaa !13
  call void @llvm.lifetime.start.p0(i64 8, ptr %6) #8
  call void @llvm.lifetime.start.p0(i64 8, ptr %7) #8
  call void @llvm.lifetime.start.p0(i64 4, ptr %8) #8
  call void @llvm.lifetime.start.p0(i64 8, ptr %9) #8
  call void @llvm.lifetime.start.p0(i64 4, ptr %10) #8
  %12 = load ptr, ptr %5, align 8, !tbaa !13
  %13 = call ptr @__archive_read_filter_ahead(ptr noundef %12, i64 noundef 14, ptr noundef %7)
  store ptr %13, ptr %6, align 8, !tbaa !15
  %14 = load ptr, ptr %6, align 8, !tbaa !15
  %15 = icmp eq ptr %14, null
  br i1 %15, label %16, label %17

16:                                               ; preds = %2
  store i32 0, ptr %3, align 4
  store i32 1, ptr %11, align 4
  br label %75

17:                                               ; preds = %2
  store i32 0, ptr %10, align 4, !tbaa !39
  %18 = load ptr, ptr %6, align 8, !tbaa !15
  %19 = getelementptr inbounds i8, ptr %18, i64 0
  %20 = load i8, ptr %19, align 1, !tbaa !49
  %21 = zext i8 %20 to i32
  %22 = icmp sgt i32 %21, 224
  br i1 %22, label %23, label %24

23:                                               ; preds = %17
  store i32 0, ptr %3, align 4
  store i32 1, ptr %11, align 4
  br label %75

24:                                               ; preds = %17
  %25 = load ptr, ptr %6, align 8, !tbaa !15
  %26 = getelementptr inbounds i8, ptr %25, i64 0
  %27 = load i8, ptr %26, align 1, !tbaa !49
  %28 = zext i8 %27 to i32
  %29 = icmp eq i32 %28, 93
  br i1 %29, label %36, label %30

30:                                               ; preds = %24
  %31 = load ptr, ptr %6, align 8, !tbaa !15
  %32 = getelementptr inbounds i8, ptr %31, i64 0
  %33 = load i8, ptr %32, align 1, !tbaa !49
  %34 = zext i8 %33 to i32
  %35 = icmp eq i32 %34, 94
  br i1 %35, label %36, label %39

36:                                               ; preds = %30, %24
  %37 = load i32, ptr %10, align 4, !tbaa !39
  %38 = add nsw i32 %37, 8
  store i32 %38, ptr %10, align 4, !tbaa !39
  br label %39

39:                                               ; preds = %36, %30
  %40 = load ptr, ptr %6, align 8, !tbaa !15
  %41 = getelementptr inbounds i8, ptr %40, i64 5
  %42 = call i64 @archive_le64dec(ptr noundef %41)
  store i64 %42, ptr %9, align 8, !tbaa !41
  %43 = load i64, ptr %9, align 8, !tbaa !41
  %44 = icmp eq i64 %43, -1
  br i1 %44, label %45, label %48

45:                                               ; preds = %39
  %46 = load i32, ptr %10, align 4, !tbaa !39
  %47 = add nsw i32 %46, 64
  store i32 %47, ptr %10, align 4, !tbaa !39
  br label %48

48:                                               ; preds = %45, %39
  %49 = load ptr, ptr %6, align 8, !tbaa !15
  %50 = getelementptr inbounds i8, ptr %49, i64 1
  %51 = call i32 @archive_le32dec(ptr noundef %50)
  store i32 %51, ptr %8, align 4, !tbaa !39
  %52 = load i32, ptr %8, align 4, !tbaa !39
  switch i32 %52, label %56 [
    i32 4096, label %53
    i32 8192, label %53
    i32 16384, label %53
    i32 32768, label %53
    i32 65536, label %53
    i32 131072, label %53
    i32 262144, label %53
    i32 524288, label %53
    i32 1048576, label %53
    i32 2097152, label %53
    i32 4194304, label %53
    i32 8388608, label %53
    i32 16777216, label %53
    i32 33554432, label %53
    i32 67108864, label %53
    i32 134217728, label %53
  ]

53:                                               ; preds = %48, %48, %48, %48, %48, %48, %48, %48, %48, %48, %48, %48, %48, %48, %48, %48
  %54 = load i32, ptr %10, align 4, !tbaa !39
  %55 = add nsw i32 %54, 32
  store i32 %55, ptr %10, align 4, !tbaa !39
  br label %73

56:                                               ; preds = %48
  %57 = load i32, ptr %8, align 4, !tbaa !39
  %58 = icmp ule i32 %57, 66060288
  br i1 %58, label %59, label %72

59:                                               ; preds = %56
  %60 = load i32, ptr %8, align 4, !tbaa !39
  %61 = icmp uge i32 %60, 3145728
  br i1 %61, label %62, label %72

62:                                               ; preds = %59
  %63 = load i32, ptr %8, align 4, !tbaa !39
  %64 = and i32 %63, 1048575
  %65 = icmp eq i32 %64, 0
  br i1 %65, label %66, label %72

66:                                               ; preds = %62
  %67 = load i32, ptr %10, align 4, !tbaa !39
  %68 = icmp eq i32 %67, 72
  br i1 %68, label %69, label %72

69:                                               ; preds = %66
  %70 = load i32, ptr %10, align 4, !tbaa !39
  %71 = add nsw i32 %70, 32
  store i32 %71, ptr %10, align 4, !tbaa !39
  br label %73

72:                                               ; preds = %66, %62, %59, %56
  store i32 0, ptr %3, align 4
  store i32 1, ptr %11, align 4
  br label %75

73:                                               ; preds = %69, %53
  %74 = load i32, ptr %10, align 4, !tbaa !39
  store i32 %74, ptr %3, align 4
  store i32 1, ptr %11, align 4
  br label %75

75:                                               ; preds = %73, %72, %23, %16
  call void @llvm.lifetime.end.p0(i64 4, ptr %10) #8
  call void @llvm.lifetime.end.p0(i64 8, ptr %9) #8
  call void @llvm.lifetime.end.p0(i64 4, ptr %8) #8
  call void @llvm.lifetime.end.p0(i64 8, ptr %7) #8
  call void @llvm.lifetime.end.p0(i64 8, ptr %6) #8
  %76 = load i32, ptr %3, align 4
  ret i32 %76
}