; Function Attrs: nounwind uwtable
define internal range(i32 0, 105) i32 @lzma_bidder_bid(ptr readnone captures(none) %0, ptr noundef %1) #0 {
  %3 = alloca i64, align 8
  call void @llvm.lifetime.start.p0(i64 8, ptr nonnull %3) #10
  %4 = call ptr @__archive_read_filter_ahead(ptr noundef %1, i64 noundef 14, ptr noundef nonnull %3) #10
  %5 = icmp eq ptr %4, null
  br i1 %5, label %23, label %6

6:                                                ; preds = %2
  %7 = load i8, ptr %4, align 1, !tbaa !33
  %8 = icmp ugt i8 %7, -32
  br i1 %8, label %23, label %9

9:                                                ; preds = %6
  %.off = add i8 %7, -93
  %switch = icmp ult i8 %.off, 2
  %spec.select25 = select i1 %switch, i32 8, i32 0
  %10 = getelementptr inbounds nuw i8, ptr %4, i64 5
  %.val = load i64, ptr %10, align 1
  %11 = icmp eq i64 %.val, -1
  %12 = or disjoint i32 %spec.select25, 64
  %spec.select = select i1 %11, i32 %12, i32 %spec.select25
  %13 = getelementptr inbounds nuw i8, ptr %4, i64 1
  %14 = load i32, ptr %13, align 1
  switch i32 %14, label %17 [
    i32 4096, label %15
    i32 8192, label %15
    i32 16384, label %15
    i32 32768, label %15
    i32 65536, label %15
    i32 131072, label %15
    i32 262144, label %15
    i32 524288, label %15
    i32 1048576, label %15
    i32 2097152, label %15
    i32 4194304, label %15
    i32 8388608, label %15
    i32 16777216, label %15
    i32 33554432, label %15
    i32 67108864, label %15
    i32 134217728, label %15
  ]

15:                                               ; preds = %9, %9, %9, %9, %9, %9, %9, %9, %9, %9, %9, %9, %9, %9, %9, %9
  %16 = or disjoint i32 %spec.select, 32
  br label %23

17:                                               ; preds = %9
  %18 = add i32 %14, -3145728
  %or.cond = icmp ult i32 %18, 62914561
  br i1 %or.cond, label %19, label %23

19:                                               ; preds = %17
  %20 = and i32 %14, 1048575
  %21 = icmp eq i32 %20, 0
  %22 = icmp eq i32 %spec.select, 72
  %or.cond3 = select i1 %21, i1 %22, i1 false
  %spec.select26 = select i1 %or.cond3, i32 104, i32 0
  br label %23

23:                                               ; preds = %19, %15, %17, %6, %2
  %.021 = phi i32 [ 0, %2 ], [ 0, %6 ], [ 0, %17 ], [ %16, %15 ], [ %spec.select26, %19 ]
  call void @llvm.lifetime.end.p0(i64 8, ptr nonnull %3) #10
  ret i32 %.021
}